target datalayout = "e-m:e-p270:32:32-p271:32:32-p272:64:64-i64:64-i128:128-f80:128-n8:16:32:64-S128"
target triple = "x86_64-pc-linux-gnu"

; Function Attrs: nounwind uwtable
define internal zeroext i16 @FomLabV4ToLabV2(i16 noundef zeroext %0) #0 {
  %2 = alloca i16, align 2
  store i16 %0, ptr %2, align 2
  %3 = load i16, ptr %2, align 2
  %4 = zext i16 %3 to i32
  %5 = shl i32 %4, 8
  %6 = add nsw i32 %5, 128
  %7 = sdiv i32 %6, 257
  %8 = trunc i32 %7 to i16
  ret i16 %8
}

; Function Attrs: nounwind uwtable
define internal ptr @PackLabV2_8(ptr noundef %0, ptr noundef %1, ptr noundef %2, i32 noundef %3) #0 {
  %5 = alloca ptr, align 8
  %6 = alloca ptr, align 8
  %7 = alloca ptr, align 8
  %8 = alloca i32, align 4
  store ptr %0, ptr %5, align 8
  store ptr %1, ptr %6, align 8
  store ptr %2, ptr %7, align 8
  store i32 %3, ptr %8, align 4
  %9 = load ptr, ptr %6, align 8
  %10 = getelementptr inbounds i16, ptr %9, i64 0
  %11 = load i16, ptr %10, align 2
  %12 = call zeroext i16 @FomLabV4ToLabV2(i16 noundef zeroext %11)
  %13 = zext i16 %12 to i32
  %14 = mul i32 %13, 65281
  %15 = add i32 %14, 8388608
  %16 = lshr i32 %15, 24
  %17 = and i32 %16, 255
  %18 = trunc i32 %17 to i8
  %19 = load ptr, ptr %7, align 8
  %20 = getelementptr inbounds i8, ptr %19, i32 1
  store ptr %20, ptr %7, align 8
  store i8 %18, ptr %19, align 1
  %21 = load ptr, ptr %6, align 8
  %22 = getelementptr inbounds i16, ptr %21, i64 1
  %23 = load i16, ptr %22, align 2
  %24 = call zeroext i16 @FomLabV4ToLabV2(i16 noundef zeroext %23)
  %25 = zext i16 %24 to i32
  %26 = mul i32 %25, 65281
  %27 = add i32 %26, 8388608
  %28 = lshr i32 %27, 24
  %29 = and i32 %28, 255
  %30 = trunc i32 %29 to i8
  %31 = load ptr, ptr %7, align 8
  %32 = getelementptr inbounds i8, ptr %31, i32 1
  store ptr %32, ptr %7, align 8
  store i8 %30, ptr %31, align 1
  %33 = load ptr, ptr %6, align 8
  %34 = getelementptr inbounds i16, ptr %33, i64 2
  %35 = load i16, ptr %34, align 2
  %36 = call zeroext i16 @FomLabV4ToLabV2(i16 noundef zeroext %35)
  %37 = zext i16 %36 to i32
  %38 = mul i32 %37, 65281
  %39 = add i32 %38, 8388608
  %40 = lshr i32 %39, 24
  %41 = and i32 %40, 255
  %42 = trunc i32 %41 to i8
  %43 = load ptr, ptr %7, align 8
  %44 = getelementptr inbounds i8, ptr %43, i32 1
  store ptr %44, ptr %7, align 8
  store i8 %42, ptr %43, align 1
  %45 = load ptr, ptr %7, align 8
  ret ptr %45
}