; Function Attrs: mustprogress nofree norecurse nosync nounwind willreturn memory(argmem: readwrite) uwtable
define internal nonnull ptr @PackLabV2_8(ptr nocapture readnone %0, ptr nocapture noundef readonly %1, ptr noundef writeonly %2, i32 %3) #3 {
  %5 = load i16, ptr %1, align 2
  %6 = zext i16 %5 to i32
  %7 = shl nuw nsw i32 %6, 8
  %8 = or disjoint i32 %7, 128
  %9 = udiv i32 %8, 257
  %10 = mul nuw i32 %9, 65281
  %11 = add nuw i32 %10, 8388608
  %12 = lshr i32 %11, 24
  %13 = trunc nuw i32 %12 to i8
  %14 = getelementptr inbounds i8, ptr %2, i64 1
  store i8 %13, ptr %2, align 1
  %15 = getelementptr inbounds i8, ptr %1, i64 2
  %16 = load i16, ptr %15, align 2
  %17 = zext i16 %16 to i32
  %18 = shl nuw nsw i32 %17, 8
  %19 = or disjoint i32 %18, 128
  %20 = udiv i32 %19, 257
  %21 = mul nuw i32 %20, 65281
  %22 = add nuw i32 %21, 8388608
  %23 = lshr i32 %22, 24
  %24 = trunc nuw i32 %23 to i8
  %25 = getelementptr inbounds i8, ptr %2, i64 2
  store i8 %24, ptr %14, align 1
  %26 = getelementptr inbounds i8, ptr %1, i64 4
  %27 = load i16, ptr %26, align 2
  %28 = zext i16 %27 to i32
  %29 = shl nuw nsw i32 %28, 8
  %30 = or disjoint i32 %29, 128
  %31 = udiv i32 %30, 257
  %32 = mul nuw i32 %31, 65281
  %33 = add nuw i32 %32, 8388608
  %34 = lshr i32 %33, 24
  %35 = trunc nuw i32 %34 to i8
  %36 = getelementptr inbounds i8, ptr %2, i64 3
  store i8 %35, ptr %25, align 1
  ret ptr %36
}